; ModuleID = '16/273.c'
source_filename = "16/273.c"
target datalayout = "e-m:e-p270:32:32-p271:32:32-p272:64:64-i64:64-f80:128-n8:16:32:64-S128"
target triple = "x86_64-pc-linux-gnu"

@.str = private unnamed_addr constant [3 x i8] c"%d\00", align 1
@.str.1 = private unnamed_addr constant [11 x i8] c"%d%d%d%d%d\00", align 1
@.str.2 = private unnamed_addr constant [9 x i8] c"%d%d%d%d\00", align 1
@.str.3 = private unnamed_addr constant [7 x i8] c"%d%d%d\00", align 1
@.str.4 = private unnamed_addr constant [5 x i8] c"%d%d\00", align 1

; Function Attrs: noinline nounwind uwtable
define dso_local void @main() #0 {
  %1 = alloca i32, align 4
  %2 = alloca i32, align 4
  %3 = alloca i32, align 4
  %4 = alloca i32, align 4
  %5 = alloca i32, align 4
  %6 = alloca i32, align 4
  %7 = call i32 (i8*, ...) @__isoc99_scanf(i8* getelementptr inbounds ([3 x i8], [3 x i8]* @.str, i64 0, i64 0), i32* %1)
  %8 = load i32, i32* %1, align 4
  %9 = srem i32 %8, 10
  store i32 %9, i32* %2, align 4
  %10 = load i32, i32* %1, align 4
  %11 = srem i32 %10, 100
  %12 = load i32, i32* %1, align 4
  %13 = srem i32 %12, 10
  %14 = sub nsw i32 %11, %13
  %15 = sdiv i32 %14, 10
  store i32 %15, i32* %3, align 4
  %16 = load i32, i32* %1, align 4
  %17 = srem i32 %16, 1000
  %18 = load i32, i32* %1, align 4
  %19 = srem i32 %18, 100
  %20 = sub nsw i32 %17, %19
  %21 = sdiv i32 %20, 100
  store i32 %21, i32* %4, align 4
  %22 = load i32, i32* %1, align 4
  %23 = srem i32 %22, 10000
  %24 = load i32, i32* %1, align 4
  %25 = srem i32 %24, 1000
  %26 = sub nsw i32 %23, %25
  %27 = sdiv i32 %26, 1000
  store i32 %27, i32* %5, align 4
  %28 = load i32, i32* %1, align 4
  %29 = load i32, i32* %5, align 4
  %30 = mul nsw i32 1000, %29
  %31 = sub nsw i32 %28, %30
  %32 = load i32, i32* %4, align 4
  %33 = mul nsw i32 100, %32
  %34 = sub nsw i32 %31, %33
  %35 = load i32, i32* %3, align 4
  %36 = mul nsw i32 10, %35
  %37 = sub nsw i32 %34, %36
  %38 = load i32, i32* %2, align 4
  %39 = sub nsw i32 %37, %38
  %40 = sdiv i32 %39, 10000
  store i32 %40, i32* %6, align 4
  %41 = load i32, i32* %6, align 4
  %42 = icmp ne i32 %41, 0
  br i1 %42, label %43, label %50

43:                                               ; preds = %0
  %44 = load i32, i32* %2, align 4
  %45 = load i32, i32* %3, align 4
  %46 = load i32, i32* %4, align 4
  %47 = load i32, i32* %5, align 4
  %48 = load i32, i32* %6, align 4
  %49 = call i32 (i8*, ...) @printf(i8* getelementptr inbounds ([11 x i8], [11 x i8]* @.str.1, i64 0, i64 0), i32 %44, i32 %45, i32 %46, i32 %47, i32 %48)
  br label %80

50:                                               ; preds = %0
  %51 = load i32, i32* %5, align 4
  %52 = icmp ne i32 %51, 0
  br i1 %52, label %53, label %59

53:                                               ; preds = %50
  %54 = load i32, i32* %2, align 4
  %55 = load i32, i32* %3, align 4
  %56 = load i32, i32* %4, align 4
  %57 = load i32, i32* %5, align 4
  %58 = call i32 (i8*, ...) @printf(i8* getelementptr inbounds ([9 x i8], [9 x i8]* @.str.2, i64 0, i64 0), i32 %54, i32 %55, i32 %56, i32 %57)
  br label %79

59:                                               ; preds = %50
  %60 = load i32, i32* %4, align 4
  %61 = icmp ne i32 %60, 0
  br i1 %61, label %62, label %67

62:                                               ; preds = %59
  %63 = load i32, i32* %2, align 4
  %64 = load i32, i32* %3, align 4
  %65 = load i32, i32* %4, align 4
  %66 = call i32 (i8*, ...) @printf(i8* getelementptr inbounds ([7 x i8], [7 x i8]* @.str.3, i64 0, i64 0), i32 %63, i32 %64, i32 %65)
  br label %78

67:                                               ; preds = %59
  %68 = load i32, i32* %5, align 4
  %69 = icmp ne i32 %68, 0
  br i1 %69, label %70, label %74

70:                                               ; preds = %67
  %71 = load i32, i32* %2, align 4
  %72 = load i32, i32* %3, align 4
  %73 = call i32 (i8*, ...) @printf(i8* getelementptr inbounds ([5 x i8], [5 x i8]* @.str.4, i64 0, i64 0), i32 %71, i32 %72)
  br label %77

74:                                               ; preds = %67
  %75 = load i32, i32* %2, align 4
  %76 = call i32 (i8*, ...) @printf(i8* getelementptr inbounds ([3 x i8], [3 x i8]* @.str, i64 0, i64 0), i32 %75)
  br label %77

77:                                               ; preds = %74, %70
  br label %78

78:                                               ; preds = %77, %62
  br label %79

79:                                               ; preds = %78, %53
  br label %80

80:                                               ; preds = %79, %43
  ret void
}

declare dso_local i32 @__isoc99_scanf(i8*, ...) #1

declare dso_local i32 @printf(i8*, ...) #1


!llvm.module.flags = !{!0}
!llvm.ident = !{!1}

!0 = !{i32 1, !"wchar_size", i32 4}
!1 = !{!"clang version 10.0.0-4ubuntu1 "}
